target datalayout = "e-m:e-p270:32:32-p271:32:32-p272:64:64-i64:64-i128:128-f80:128-n8:16:32:64-S128"
target triple = "x86_64-pc-linux-gnu"

@prte_ess_base_num_procs = global i32 -1, align 4
@prte_ess_base_nspace = global ptr null, align 8
@prte_ess_base_vpid = global ptr null, align 8
@.str = private unnamed_addr constant [5 x i8] c"prte\00", align 1
@.str.1 = private unnamed_addr constant [4 x i8] c"ess\00", align 1
@forwarded_signals = internal global ptr null, align 8
@.str.9 = private unnamed_addr constant [5 x i8] c"base\00", align 1
@.str.10 = private unnamed_addr constant [7 x i8] c"nspace\00", align 1
@.str.11 = private unnamed_addr constant [15 x i8] c"Process nspace\00", align 1
@.str.12 = private unnamed_addr constant [5 x i8] c"vpid\00", align 1
@.str.13 = private unnamed_addr constant [13 x i8] c"Process vpid\00", align 1
@.str.14 = private unnamed_addr constant [10 x i8] c"num_procs\00", align 1
@.str.15 = private unnamed_addr constant [48 x i8] c"Used to discover the number of procs in the job\00", align 1
@.str.16 = private unnamed_addr constant [16 x i8] c"forward_signals\00", align 1
@.str.17 = private unnamed_addr constant [221 x i8] c"Comma-delimited list of additional signals (names or integers) to forward to application processes [\22none\22 => forward nothing]. Signals provided by default include SIGTSTP, SIGUSR1, SIGUSR2, SIGABRT, SIGALRM, and SIGCONT\00", align 1
@.str.18 = private unnamed_addr constant [4 x i8] c"hnp\00", align 1

; Function Attrs: nounwind uwtable
define internal i32 @prte_ess_base_register(i32 noundef %0) #0 {
  %2 = alloca i32, align 4
  %3 = alloca i32, align 4
  store i32 %0, ptr %2, align 4, !tbaa !3
  call void @llvm.lifetime.start.p0(i64 4, ptr %3) #11
  store ptr null, ptr @prte_ess_base_nspace, align 8, !tbaa !7
  %4 = call i32 @pmix_mca_base_var_register(ptr noundef @.str, ptr noundef @.str.1, ptr noundef @.str.9, ptr noundef @.str.10, ptr noundef @.str.11, i32 noundef 5, ptr noundef @prte_ess_base_nspace)
  store i32 %4, ptr %3, align 4, !tbaa !3
  %5 = load i32, ptr %3, align 4, !tbaa !3
  %6 = call i32 @pmix_mca_base_var_register_synonym(i32 noundef %5, ptr noundef @.str, ptr noundef @.str, ptr noundef @.str.1, ptr noundef @.str.10, i32 noundef 1)
  store ptr null, ptr @prte_ess_base_vpid, align 8, !tbaa !7
  %7 = call i32 @pmix_mca_base_var_register(ptr noundef @.str, ptr noundef @.str.1, ptr noundef @.str.9, ptr noundef @.str.12, ptr noundef @.str.13, i32 noundef 5, ptr noundef @prte_ess_base_vpid)
  store i32 %7, ptr %3, align 4, !tbaa !3
  %8 = load i32, ptr %3, align 4, !tbaa !3
  %9 = call i32 @pmix_mca_base_var_register_synonym(i32 noundef %8, ptr noundef @.str, ptr noundef @.str, ptr noundef @.str.1, ptr noundef @.str.12, i32 noundef 1)
  store i32 -1, ptr @prte_ess_base_num_procs, align 4, !tbaa !3
  %10 = call i32 @pmix_mca_base_var_register(ptr noundef @.str, ptr noundef @.str.1, ptr noundef @.str.9, ptr noundef @.str.14, ptr noundef @.str.15, i32 noundef 0, ptr noundef @prte_ess_base_num_procs)
  store i32 %10, ptr %3, align 4, !tbaa !3
  %11 = load i32, ptr %3, align 4, !tbaa !3
  %12 = call i32 @pmix_mca_base_var_register_synonym(i32 noundef %11, ptr noundef @.str, ptr noundef @.str, ptr noundef @.str.1, ptr noundef @.str.14, i32 noundef 1)
  store ptr null, ptr @forwarded_signals, align 8, !tbaa !7
  %13 = call i32 @pmix_mca_base_var_register(ptr noundef @.str, ptr noundef @.str.1, ptr noundef @.str.9, ptr noundef @.str.16, ptr noundef @.str.17, i32 noundef 5, ptr noundef @forwarded_signals)
  store i32 %13, ptr %3, align 4, !tbaa !3
  %14 = load i32, ptr %3, align 4, !tbaa !3
  %15 = call i32 @pmix_mca_base_var_register_synonym(i32 noundef %14, ptr noundef @.str, ptr noundef @.str.1, ptr noundef @.str.18, ptr noundef @.str.16, i32 noundef 1)
  call void @llvm.lifetime.end.p0(i64 4, ptr %3) #11
  ret i32 0
}