; Function Attrs: nounwind uwtable
define internal noundef i32 @prte_ess_base_register(i32 %0) #0 {
  store ptr null, ptr @prte_ess_base_nspace, align 8, !tbaa !3
  %2 = tail call i32 @pmix_mca_base_var_register(ptr noundef nonnull @.str, ptr noundef nonnull @.str.1, ptr noundef nonnull @.str.9, ptr noundef nonnull @.str.10, ptr noundef nonnull @.str.11, i32 noundef 5, ptr noundef nonnull @prte_ess_base_nspace) #16
  %3 = tail call i32 @pmix_mca_base_var_register_synonym(i32 noundef %2, ptr noundef nonnull @.str, ptr noundef nonnull @.str, ptr noundef nonnull @.str.1, ptr noundef nonnull @.str.10, i32 noundef 1) #16
  store ptr null, ptr @prte_ess_base_vpid, align 8, !tbaa !3
  %4 = tail call i32 @pmix_mca_base_var_register(ptr noundef nonnull @.str, ptr noundef nonnull @.str.1, ptr noundef nonnull @.str.9, ptr noundef nonnull @.str.12, ptr noundef nonnull @.str.13, i32 noundef 5, ptr noundef nonnull @prte_ess_base_vpid) #16
  %5 = tail call i32 @pmix_mca_base_var_register_synonym(i32 noundef %4, ptr noundef nonnull @.str, ptr noundef nonnull @.str, ptr noundef nonnull @.str.1, ptr noundef nonnull @.str.12, i32 noundef 1) #16
  store i32 -1, ptr @prte_ess_base_num_procs, align 4, !tbaa !8
  %6 = tail call i32 @pmix_mca_base_var_register(ptr noundef nonnull @.str, ptr noundef nonnull @.str.1, ptr noundef nonnull @.str.9, ptr noundef nonnull @.str.14, ptr noundef nonnull @.str.15, i32 noundef 0, ptr noundef nonnull @prte_ess_base_num_procs) #16
  %7 = tail call i32 @pmix_mca_base_var_register_synonym(i32 noundef %6, ptr noundef nonnull @.str, ptr noundef nonnull @.str, ptr noundef nonnull @.str.1, ptr noundef nonnull @.str.14, i32 noundef 1) #16
  store ptr null, ptr @forwarded_signals, align 8, !tbaa !3
  %8 = tail call i32 @pmix_mca_base_var_register(ptr noundef nonnull @.str, ptr noundef nonnull @.str.1, ptr noundef nonnull @.str.9, ptr noundef nonnull @.str.16, ptr noundef nonnull @.str.17, i32 noundef 5, ptr noundef nonnull @forwarded_signals) #16
  %9 = tail call i32 @pmix_mca_base_var_register_synonym(i32 noundef %8, ptr noundef nonnull @.str, ptr noundef nonnull @.str.1, ptr noundef nonnull @.str.18, ptr noundef nonnull @.str.16, i32 noundef 1) #16
  ret i32 0
}